target datalayout = "e-m:e-p270:32:32-p271:32:32-p272:64:64-i64:64-i128:128-f80:128-n8:16:32:64-S128"
target triple = "x86_64-pc-linux-gnu"

%"class.o3dgc::Arithmetic_Codec" = type <{ ptr, ptr, ptr, i32, i32, i32, i32, i32, [4 x i8] }>
%"class.o3dgc::Static_Bit_Model" = type { i32 }

; Function Attrs: inlinehint mustprogress nounwind uwtable
define linkonce_odr hidden void @_ZN5o3dgc16Arithmetic_Codec19renorm_dec_intervalEv(ptr noundef nonnull align 8 dereferenceable(44) %0) #2 comdat align 2 {
  %2 = alloca ptr, align 8
  store ptr %0, ptr %2, align 8
  %3 = load ptr, ptr %2, align 8
  br label %4

4:                                                ; preds = %15, %1
  %5 = getelementptr inbounds nuw %"class.o3dgc::Arithmetic_Codec", ptr %3, i32 0, i32 4
  %6 = load i32, ptr %5, align 4
  %7 = shl i32 %6, 8
  %8 = getelementptr inbounds nuw %"class.o3dgc::Arithmetic_Codec", ptr %3, i32 0, i32 2
  %9 = load ptr, ptr %8, align 8
  %10 = getelementptr inbounds nuw i8, ptr %9, i32 1
  store ptr %10, ptr %8, align 8
  %11 = load i8, ptr %10, align 1
  %12 = zext i8 %11 to i32
  %13 = or i32 %7, %12
  %14 = getelementptr inbounds nuw %"class.o3dgc::Arithmetic_Codec", ptr %3, i32 0, i32 4
  store i32 %13, ptr %14, align 4
  br label %15

15:                                               ; preds = %4
  %16 = getelementptr inbounds nuw %"class.o3dgc::Arithmetic_Codec", ptr %3, i32 0, i32 5
  %17 = load i32, ptr %16, align 8
  %18 = shl i32 %17, 8
  store i32 %18, ptr %16, align 8
  %19 = icmp ult i32 %18, 16777216
  br i1 %19, label %4, label %20, !llvm.loop !6

20:                                               ; preds = %15
  ret void
}

; Function Attrs: mustprogress uwtable
define hidden noundef i32 @_ZN5o3dgc16Arithmetic_Codec6decodeERNS_16Static_Bit_ModelE(ptr noundef nonnull align 8 dereferenceable(44) %0, ptr noundef nonnull align 4 dereferenceable(4) %1) #0 align 2 {
  %3 = alloca ptr, align 8
  %4 = alloca ptr, align 8
  %5 = alloca i32, align 4
  %6 = alloca i32, align 4
  store ptr %0, ptr %3, align 8
  store ptr %1, ptr %4, align 8
  %7 = load ptr, ptr %3, align 8
  call void @llvm.lifetime.start.p0(i64 4, ptr %5) #12
  %8 = load ptr, ptr %4, align 8
  %9 = getelementptr inbounds nuw %"class.o3dgc::Static_Bit_Model", ptr %8, i32 0, i32 0
  %10 = load i32, ptr %9, align 4
  %11 = getelementptr inbounds nuw %"class.o3dgc::Arithmetic_Codec", ptr %7, i32 0, i32 5
  %12 = load i32, ptr %11, align 8
  %13 = lshr i32 %12, 13
  %14 = mul i32 %10, %13
  store i32 %14, ptr %5, align 4
  call void @llvm.lifetime.start.p0(i64 4, ptr %6) #12
  %15 = getelementptr inbounds nuw %"class.o3dgc::Arithmetic_Codec", ptr %7, i32 0, i32 4
  %16 = load i32, ptr %15, align 4
  %17 = load i32, ptr %5, align 4
  %18 = icmp uge i32 %16, %17
  %19 = zext i1 %18 to i32
  store i32 %19, ptr %6, align 4
  %20 = load i32, ptr %6, align 4
  %21 = icmp eq i32 %20, 0
  br i1 %21, label %22, label %25

22:                                               ; preds = %2
  %23 = load i32, ptr %5, align 4
  %24 = getelementptr inbounds nuw %"class.o3dgc::Arithmetic_Codec", ptr %7, i32 0, i32 5
  store i32 %23, ptr %24, align 8
  br label %34

25:                                               ; preds = %2
  %26 = load i32, ptr %5, align 4
  %27 = getelementptr inbounds nuw %"class.o3dgc::Arithmetic_Codec", ptr %7, i32 0, i32 4
  %28 = load i32, ptr %27, align 4
  %29 = sub i32 %28, %26
  store i32 %29, ptr %27, align 4
  %30 = load i32, ptr %5, align 4
  %31 = getelementptr inbounds nuw %"class.o3dgc::Arithmetic_Codec", ptr %7, i32 0, i32 5
  %32 = load i32, ptr %31, align 8
  %33 = sub i32 %32, %30
  store i32 %33, ptr %31, align 8
  br label %34

34:                                               ; preds = %25, %22
  %35 = getelementptr inbounds nuw %"class.o3dgc::Arithmetic_Codec", ptr %7, i32 0, i32 5
  %36 = load i32, ptr %35, align 8
  %37 = icmp ult i32 %36, 16777216
  br i1 %37, label %38, label %39

38:                                               ; preds = %34
  call void @_ZN5o3dgc16Arithmetic_Codec19renorm_dec_intervalEv(ptr noundef nonnull align 8 dereferenceable(44) %7)
  br label %39

39:                                               ; preds = %38, %34
  %40 = load i32, ptr %6, align 4
  call void @llvm.lifetime.end.p0(i64 4, ptr %6) #12
  call void @llvm.lifetime.end.p0(i64 4, ptr %5) #12
  ret i32 %40
}