; Function Attrs: mustprogress nofree norecurse nosync nounwind memory(read, argmem: readwrite, inaccessiblemem: none) uwtable
define hidden noundef range(i32 0, 2) i32 @_ZN5o3dgc16Arithmetic_Codec6decodeERNS_16Static_Bit_ModelE(ptr noundef nonnull align 8 captures(none) dereferenceable(44) %0, ptr noundef nonnull readonly align 4 captures(none) dereferenceable(4) %1) local_unnamed_addr #1 align 2 {
  %3 = load i32, ptr %1, align 4
  %4 = getelementptr inbounds nuw i8, ptr %0, i64 32
  %5 = load i32, ptr %4, align 8
  %6 = lshr i32 %5, 13
  %7 = mul i32 %6, %3
  %8 = getelementptr inbounds nuw i8, ptr %0, i64 28
  %9 = load i32, ptr %8, align 4
  %10 = icmp uge i32 %9, %7
  br i1 %10, label %11, label %14

11:                                               ; preds = %2
  %12 = sub nuw i32 %9, %7
  store i32 %12, ptr %8, align 4
  %13 = sub i32 %5, %7
  br label %14

14:                                               ; preds = %2, %11
  %.promoted.i = phi i32 [ %12, %11 ], [ %9, %2 ]
  %storemerge = phi i32 [ %13, %11 ], [ %7, %2 ]
  store i32 %storemerge, ptr %4, align 8
  %15 = icmp ult i32 %storemerge, 16777216
  br i1 %15, label %16, label %_ZN5o3dgc16Arithmetic_Codec19renorm_dec_intervalEv.exit

16:                                               ; preds = %14
  %17 = getelementptr inbounds nuw i8, ptr %0, i64 16
  %.promoted1.i = load ptr, ptr %17, align 8
  br label %18

18:                                               ; preds = %18, %16
  %19 = phi i32 [ %27, %18 ], [ %storemerge, %16 ]
  %20 = phi ptr [ %23, %18 ], [ %.promoted1.i, %16 ]
  %21 = phi i32 [ %26, %18 ], [ %.promoted.i, %16 ]
  %22 = shl i32 %21, 8
  %23 = getelementptr inbounds nuw i8, ptr %20, i64 1
  store ptr %23, ptr %17, align 8
  %24 = load i8, ptr %23, align 1
  %25 = zext i8 %24 to i32
  %26 = or disjoint i32 %22, %25
  store i32 %26, ptr %8, align 4
  %27 = shl nuw i32 %19, 8
  store i32 %27, ptr %4, align 8
  %28 = icmp ult i32 %19, 65536
  br i1 %28, label %18, label %_ZN5o3dgc16Arithmetic_Codec19renorm_dec_intervalEv.exit, !llvm.loop !6

_ZN5o3dgc16Arithmetic_Codec19renorm_dec_intervalEv.exit: ; preds = %18, %14
  %29 = zext i1 %10 to i32
  ret i32 %29
}